; ModuleID = '49/1401.cpp'
source_filename = "49/1401.cpp"
target datalayout = "e-m:e-p270:32:32-p271:32:32-p272:64:64-i64:64-f80:128-n8:16:32:64-S128"
target triple = "x86_64-pc-linux-gnu"

%"class.std::ios_base::Init" = type { i8 }
%"class.std::basic_istream" = type { i32 (...)**, i64, %"class.std::basic_ios" }
%"class.std::basic_ios" = type { %"class.std::ios_base", %"class.std::basic_ostream"*, i8, i8, %"class.std::basic_streambuf"*, %"class.std::ctype"*, %"class.std::num_put"*, %"class.std::num_get"* }
%"class.std::ios_base" = type { i32 (...)**, i64, i64, i32, i32, i32, %"struct.std::ios_base::_Callback_list"*, %"struct.std::ios_base::_Words", [8 x %"struct.std::ios_base::_Words"], i32, %"struct.std::ios_base::_Words"*, %"class.std::locale" }
%"struct.std::ios_base::_Callback_list" = type { %"struct.std::ios_base::_Callback_list"*, void (i32, %"class.std::ios_base"*, i32)*, i32, i32 }
%"struct.std::ios_base::_Words" = type { i8*, i64 }
%"class.std::locale" = type { %"class.std::locale::_Impl"* }
%"class.std::locale::_Impl" = type { i32, %"class.std::locale::facet"**, i64, %"class.std::locale::facet"**, i8** }
%"class.std::locale::facet" = type <{ i32 (...)**, i32, [4 x i8] }>
%"class.std::basic_ostream" = type { i32 (...)**, %"class.std::basic_ios" }
%"class.std::basic_streambuf" = type { i32 (...)**, i8*, i8*, i8*, i8*, i8*, i8*, %"class.std::locale" }
%"class.std::ctype" = type <{ %"class.std::locale::facet.base", [4 x i8], %struct.__locale_struct*, i8, [7 x i8], i32*, i32*, i16*, i8, [256 x i8], [256 x i8], i8, [6 x i8] }>
%"class.std::locale::facet.base" = type <{ i32 (...)**, i32 }>
%struct.__locale_struct = type { [13 x %struct.__locale_data*], i16*, i32*, i32*, [13 x i8*] }
%struct.__locale_data = type opaque
%"class.std::num_put" = type { %"class.std::locale::facet.base", [4 x i8] }
%"class.std::num_get" = type { %"class.std::locale::facet.base", [4 x i8] }

@_ZStL8__ioinit = internal global %"class.std::ios_base::Init" zeroinitializer, align 1
@__dso_handle = external hidden global i8
@_ZSt3cin = external dso_local global %"class.std::basic_istream", align 8
@_ZSt4cout = external dso_local global %"class.std::basic_ostream", align 8
@llvm.global_ctors = appending global [1 x { i32, void ()*, i8* }] [{ i32, void ()*, i8* } { i32 65535, void ()* @_GLOBAL__sub_I_1401.cpp, i8* null }]

; Function Attrs: noinline uwtable
define internal void @__cxx_global_var_init() #0 section ".text.startup" {
  call void @_ZNSt8ios_base4InitC1Ev(%"class.std::ios_base::Init"* @_ZStL8__ioinit)
  %1 = call i32 @__cxa_atexit(void (i8*)* bitcast (void (%"class.std::ios_base::Init"*)* @_ZNSt8ios_base4InitD1Ev to void (i8*)*), i8* getelementptr inbounds (%"class.std::ios_base::Init", %"class.std::ios_base::Init"* @_ZStL8__ioinit, i32 0, i32 0), i8* @__dso_handle) #3
  ret void
}

declare dso_local void @_ZNSt8ios_base4InitC1Ev(%"class.std::ios_base::Init"*) unnamed_addr #1

; Function Attrs: nounwind
declare dso_local void @_ZNSt8ios_base4InitD1Ev(%"class.std::ios_base::Init"*) unnamed_addr #2

; Function Attrs: nounwind
declare dso_local i32 @__cxa_atexit(void (i8*)*, i8*, i8*) #3

; Function Attrs: noinline norecurse uwtable
define dso_local i32 @main() #4 {
  %1 = alloca i32, align 4
  %2 = alloca [501 x i8], align 16
  %3 = alloca i32, align 4
  %4 = alloca i32, align 4
  %5 = alloca i32, align 4
  %6 = alloca i32, align 4
  %7 = alloca i32, align 4
  %8 = alloca i32, align 4
  %9 = alloca i32, align 4
  store i32 0, i32* %1, align 4
  %10 = getelementptr inbounds [501 x i8], [501 x i8]* %2, i64 0, i64 0
  %11 = call dereferenceable(280) %"class.std::basic_istream"* @_ZStrsIcSt11char_traitsIcEERSt13basic_istreamIT_T0_ES6_PS3_(%"class.std::basic_istream"* dereferenceable(280) @_ZSt3cin, i8* %10)
  %12 = getelementptr inbounds [501 x i8], [501 x i8]* %2, i64 0, i64 0
  %13 = call i64 @strlen(i8* %12) #6
  %14 = trunc i64 %13 to i32
  store i32 %14, i32* %3, align 4
  store i32 0, i32* %4, align 4
  store i32 0, i32* %5, align 4
  store i32 0, i32* %6, align 4
  store i32 0, i32* %7, align 4
  store i32 0, i32* %8, align 4
  store i32 0, i32* %9, align 4
  store i32 2, i32* %4, align 4
  br label %15

15:                                               ; preds = %83, %0
  %16 = load i32, i32* %4, align 4
  %17 = load i32, i32* %3, align 4
  %18 = icmp sle i32 %16, %17
  br i1 %18, label %19, label %86

19:                                               ; preds = %15
  store i32 0, i32* %8, align 4
  br label %20

20:                                               ; preds = %79, %19
  %21 = load i32, i32* %8, align 4
  %22 = load i32, i32* %3, align 4
  %23 = load i32, i32* %4, align 4
  %24 = sub nsw i32 %22, %23
  %25 = icmp sle i32 %21, %24
  br i1 %25, label %26, label %82

26:                                               ; preds = %20
  %27 = load i32, i32* %8, align 4
  store i32 %27, i32* %5, align 4
  %28 = load i32, i32* %4, align 4
  %29 = load i32, i32* %8, align 4
  %30 = add nsw i32 %28, %29
  %31 = sub nsw i32 %30, 1
  store i32 %31, i32* %6, align 4
  br label %32

32:                                               ; preds = %50, %26
  %33 = load i32, i32* %5, align 4
  %34 = load i32, i32* %6, align 4
  %35 = icmp slt i32 %33, %34
  br i1 %35, label %36, label %55

36:                                               ; preds = %32
  store i32 1, i32* %9, align 4
  %37 = load i32, i32* %5, align 4
  %38 = sext i32 %37 to i64
  %39 = getelementptr inbounds [501 x i8], [501 x i8]* %2, i64 0, i64 %38
  %40 = load i8, i8* %39, align 1
  %41 = sext i8 %40 to i32
  %42 = load i32, i32* %6, align 4
  %43 = sext i32 %42 to i64
  %44 = getelementptr inbounds [501 x i8], [501 x i8]* %2, i64 0, i64 %43
  %45 = load i8, i8* %44, align 1
  %46 = sext i8 %45 to i32
  %47 = icmp ne i32 %41, %46
  br i1 %47, label %48, label %49

48:                                               ; preds = %36
  store i32 0, i32* %9, align 4
  br label %55

49:                                               ; preds = %36
  br label %50

50:                                               ; preds = %49
  %51 = load i32, i32* %5, align 4
  %52 = add nsw i32 %51, 1
  store i32 %52, i32* %5, align 4
  %53 = load i32, i32* %6, align 4
  %54 = add nsw i32 %53, -1
  store i32 %54, i32* %6, align 4
  br label %32

55:                                               ; preds = %48, %32
  %56 = load i32, i32* %9, align 4
  %57 = icmp ne i32 %56, 0
  br i1 %57, label %58, label %78

58:                                               ; preds = %55
  %59 = load i32, i32* %8, align 4
  store i32 %59, i32* %7, align 4
  br label %60

60:                                               ; preds = %73, %58
  %61 = load i32, i32* %7, align 4
  %62 = load i32, i32* %4, align 4
  %63 = load i32, i32* %8, align 4
  %64 = add nsw i32 %62, %63
  %65 = sub nsw i32 %64, 1
  %66 = icmp sle i32 %61, %65
  br i1 %66, label %67, label %76

67:                                               ; preds = %60
  %68 = load i32, i32* %7, align 4
  %69 = sext i32 %68 to i64
  %70 = getelementptr inbounds [501 x i8], [501 x i8]* %2, i64 0, i64 %69
  %71 = load i8, i8* %70, align 1
  %72 = call dereferenceable(272) %"class.std::basic_ostream"* @_ZStlsISt11char_traitsIcEERSt13basic_ostreamIcT_ES5_c(%"class.std::basic_ostream"* dereferenceable(272) @_ZSt4cout, i8 signext %71)
  br label %73

73:                                               ; preds = %67
  %74 = load i32, i32* %7, align 4
  %75 = add nsw i32 %74, 1
  store i32 %75, i32* %7, align 4
  br label %60

76:                                               ; preds = %60
  %77 = call dereferenceable(272) %"class.std::basic_ostream"* @_ZNSolsEPFRSoS_E(%"class.std::basic_ostream"* @_ZSt4cout, %"class.std::basic_ostream"* (%"class.std::basic_ostream"*)* @_ZSt4endlIcSt11char_traitsIcEERSt13basic_ostreamIT_T0_ES6_)
  br label %78

78:                                               ; preds = %76, %55
  br label %79

79:                                               ; preds = %78
  %80 = load i32, i32* %8, align 4
  %81 = add nsw i32 %80, 1
  store i32 %81, i32* %8, align 4
  br label %20

82:                                               ; preds = %20
  br label %83

83:                                               ; preds = %82
  %84 = load i32, i32* %4, align 4
  %85 = add nsw i32 %84, 1
  store i32 %85, i32* %4, align 4
  br label %15

86:                                               ; preds = %15
  ret i32 0
}

declare dso_local dereferenceable(280) %"class.std::basic_istream"* @_ZStrsIcSt11char_traitsIcEERSt13basic_istreamIT_T0_ES6_PS3_(%"class.std::basic_istream"* dereferenceable(280), i8*) #1

; Function Attrs: nounwind readonly
declare dso_local i64 @strlen(i8*) #5

declare dso_local dereferenceable(272) %"class.std::basic_ostream"* @_ZStlsISt11char_traitsIcEERSt13basic_ostreamIcT_ES5_c(%"class.std::basic_ostream"* dereferenceable(272), i8 signext) #1

declare dso_local dereferenceable(272) %"class.std::basic_ostream"* @_ZNSolsEPFRSoS_E(%"class.std::basic_ostream"*, %"class.std::basic_ostream"* (%"class.std::basic_ostream"*)*) #1

declare dso_local dereferenceable(272) %"class.std::basic_ostream"* @_ZSt4endlIcSt11char_traitsIcEERSt13basic_ostreamIT_T0_ES6_(%"class.std::basic_ostream"* dereferenceable(272)) #1

; Function Attrs: noinline uwtable
define internal void @_GLOBAL__sub_I_1401.cpp() #0 section ".text.startup" {
  call void @__cxx_global_var_init()
  ret void
}


!llvm.module.flags = !{!0}
!llvm.ident = !{!1}

!0 = !{i32 1, !"wchar_size", i32 4}
!1 = !{!"clang version 10.0.0-4ubuntu1 "}
